target datalayout = "e-m:e-p270:32:32-p271:32:32-p272:64:64-i64:64-i128:128-f80:128-n8:16:32:64-S128"
target triple = "x86_64-pc-linux-gnu"

%"class.doctest::String" = type { %union.anon.7 }
%union.anon.7 = type { %"struct.doctest::String::view", [8 x i8] }
%"struct.doctest::String::view" = type { ptr, i32, i32 }

; Function Attrs: mustprogress nounwind uwtable
define linkonce_odr dso_local noundef zeroext i1 @_ZNK7doctest6String9isOnStackEv(ptr noundef nonnull align 8 dereferenceable(24) %0) #1 comdat align 2 {
  %2 = alloca ptr, align 8
  store ptr %0, ptr %2, align 8, !tbaa !59
  %3 = load ptr, ptr %2, align 8
  %4 = getelementptr inbounds nuw %"class.doctest::String", ptr %3, i32 0, i32 0
  %5 = getelementptr inbounds nuw [24 x i8], ptr %4, i64 0, i64 23
  %6 = load i8, ptr %5, align 1, !tbaa !55
  %7 = sext i8 %6 to i32
  %8 = and i32 %7, 128
  %9 = icmp eq i32 %8, 0
  ret i1 %9
}

; Function Attrs: mustprogress nounwind uwtable
define linkonce_odr dso_local noundef ptr @_ZN7doctest6String5c_strEv(ptr noundef nonnull align 8 dereferenceable(24) %0) #1 comdat align 2 {
  %2 = alloca ptr, align 8
  %3 = alloca ptr, align 8
  store ptr %0, ptr %3, align 8, !tbaa !59
  %4 = load ptr, ptr %3, align 8
  %5 = call noundef zeroext i1 @_ZNK7doctest6String9isOnStackEv(ptr noundef nonnull align 8 dereferenceable(24) %4) #7
  br i1 %5, label %6, label %9

6:                                                ; preds = %1
  %7 = getelementptr inbounds nuw %"class.doctest::String", ptr %4, i32 0, i32 0
  %8 = getelementptr inbounds [24 x i8], ptr %7, i64 0, i64 0
  store ptr %8, ptr %2, align 8
  br label %13

9:                                                ; preds = %1
  %10 = getelementptr inbounds nuw %"class.doctest::String", ptr %4, i32 0, i32 0
  %11 = getelementptr inbounds nuw %"struct.doctest::String::view", ptr %10, i32 0, i32 0
  %12 = load ptr, ptr %11, align 8, !tbaa !55
  store ptr %12, ptr %2, align 8
  br label %13

13:                                               ; preds = %9, %6
  %14 = load ptr, ptr %2, align 8
  ret ptr %14
}

; Function Attrs: mustprogress nounwind uwtable
define dso_local noundef i32 @_ZNK7doctest6String4sizeEv(ptr noundef nonnull align 8 dereferenceable(24) %0) #1 align 2 {
  %2 = alloca i32, align 4
  %3 = alloca ptr, align 8
  store ptr %0, ptr %3, align 8, !tbaa !59
  %4 = load ptr, ptr %3, align 8
  %5 = call noundef zeroext i1 @_ZNK7doctest6String9isOnStackEv(ptr noundef nonnull align 8 dereferenceable(24) %4) #7
  br i1 %5, label %6, label %13

6:                                                ; preds = %1
  %7 = getelementptr inbounds nuw %"class.doctest::String", ptr %4, i32 0, i32 0
  %8 = getelementptr inbounds nuw [24 x i8], ptr %7, i64 0, i64 23
  %9 = load i8, ptr %8, align 1, !tbaa !55
  %10 = sext i8 %9 to i32
  %11 = and i32 %10, 31
  %12 = sub i32 23, %11
  store i32 %12, ptr %2, align 4
  br label %17

13:                                               ; preds = %1
  %14 = getelementptr inbounds nuw %"class.doctest::String", ptr %4, i32 0, i32 0
  %15 = getelementptr inbounds nuw %"struct.doctest::String::view", ptr %14, i32 0, i32 1
  %16 = load i32, ptr %15, align 8, !tbaa !55
  store i32 %16, ptr %2, align 4
  br label %17

17:                                               ; preds = %13, %6
  %18 = load i32, ptr %2, align 4
  ret i32 %18
}

; Function Attrs: mustprogress uwtable
define linkonce_odr dso_local noundef ptr @_ZNK7doctest6String5c_strEv(ptr noundef nonnull align 8 dereferenceable(24) %0) #8 comdat align 2 {
  %2 = alloca ptr, align 8
  store ptr %0, ptr %2, align 8, !tbaa !59
  %3 = load ptr, ptr %2, align 8
  %4 = call noundef ptr @_ZN7doctest6String5c_strEv(ptr noundef nonnull align 8 dereferenceable(24) %3)
  ret ptr %4
}

; Function Attrs: mustprogress uwtable
define dso_local noundef i32 @_ZNK7doctest6String4findEcj(ptr noundef nonnull align 8 dereferenceable(24) %0, i8 noundef signext %1, i32 noundef %2) #8 align 2 {
  %4 = alloca i32, align 4
  %5 = alloca ptr, align 8
  %6 = alloca i8, align 1
  %7 = alloca i32, align 4
  %8 = alloca ptr, align 8
  %9 = alloca ptr, align 8
  %10 = alloca ptr, align 8
  %11 = alloca i32, align 4
  store ptr %0, ptr %5, align 8, !tbaa !59
  store i8 %1, ptr %6, align 1, !tbaa !55
  store i32 %2, ptr %7, align 4, !tbaa !4
  %12 = load ptr, ptr %5, align 8
  call void @llvm.lifetime.start.p0(i64 8, ptr %8) #7
  %13 = call noundef ptr @_ZNK7doctest6String5c_strEv(ptr noundef nonnull align 8 dereferenceable(24) %12)
  store ptr %13, ptr %8, align 8, !tbaa !14
  call void @llvm.lifetime.start.p0(i64 8, ptr %9) #7
  %14 = load ptr, ptr %8, align 8, !tbaa !14
  %15 = call noundef i32 @_ZNK7doctest6String4sizeEv(ptr noundef nonnull align 8 dereferenceable(24) %12)
  %16 = zext i32 %15 to i64
  %17 = getelementptr inbounds nuw i8, ptr %14, i64 %16
  store ptr %17, ptr %9, align 8, !tbaa !14
  call void @llvm.lifetime.start.p0(i64 8, ptr %10) #7
  %18 = load ptr, ptr %8, align 8, !tbaa !14
  %19 = load i32, ptr %7, align 4, !tbaa !4
  %20 = zext i32 %19 to i64
  %21 = getelementptr inbounds nuw i8, ptr %18, i64 %20
  store ptr %21, ptr %10, align 8, !tbaa !14
  br label %22

22:                                               ; preds = %36, %3
  %23 = load ptr, ptr %10, align 8, !tbaa !14
  %24 = load ptr, ptr %9, align 8, !tbaa !14
  %25 = icmp ult ptr %23, %24
  br i1 %25, label %26, label %33

26:                                               ; preds = %22
  %27 = load ptr, ptr %10, align 8, !tbaa !14
  %28 = load i8, ptr %27, align 1, !tbaa !55
  %29 = sext i8 %28 to i32
  %30 = load i8, ptr %6, align 1, !tbaa !55
  %31 = sext i8 %30 to i32
  %32 = icmp ne i32 %29, %31
  br label %33

33:                                               ; preds = %26, %22
  %34 = phi i1 [ false, %22 ], [ %32, %26 ]
  br i1 %34, label %35, label %39

35:                                               ; preds = %33
  br label %36

36:                                               ; preds = %35
  %37 = load ptr, ptr %10, align 8, !tbaa !14
  %38 = getelementptr inbounds nuw i8, ptr %37, i32 1
  store ptr %38, ptr %10, align 8, !tbaa !14
  br label %22, !llvm.loop !63

39:                                               ; preds = %33
  %40 = load ptr, ptr %10, align 8, !tbaa !14
  %41 = load ptr, ptr %9, align 8, !tbaa !14
  %42 = icmp ult ptr %40, %41
  br i1 %42, label %43, label %50

43:                                               ; preds = %39
  %44 = load ptr, ptr %10, align 8, !tbaa !14
  %45 = load ptr, ptr %8, align 8, !tbaa !14
  %46 = ptrtoint ptr %44 to i64
  %47 = ptrtoint ptr %45 to i64
  %48 = sub i64 %46, %47
  %49 = trunc i64 %48 to i32
  store i32 %49, ptr %4, align 4
  store i32 1, ptr %11, align 4
  br label %51

50:                                               ; preds = %39
  store i32 -1, ptr %4, align 4
  store i32 1, ptr %11, align 4
  br label %51

51:                                               ; preds = %50, %43
  call void @llvm.lifetime.end.p0(i64 8, ptr %10) #7
  call void @llvm.lifetime.end.p0(i64 8, ptr %9) #7
  call void @llvm.lifetime.end.p0(i64 8, ptr %8) #7
  %52 = load i32, ptr %4, align 4
  ret i32 %52
}