; Function Attrs: mustprogress nofree norecurse nosync nounwind willreturn memory(read, inaccessiblemem: none) uwtable
define dso_local noundef i32 @_ZNK7doctest6String4findEcj(ptr noundef nonnull align 8 dereferenceable(24) %0, i8 noundef signext %1, i32 noundef %2) local_unnamed_addr #19 align 2 {
  %4 = getelementptr inbounds nuw i8, ptr %0, i64 23
  %5 = load i8, ptr %4, align 1, !tbaa !38
  %6 = load ptr, ptr %0, align 8
  %7 = icmp slt i8 %5, 0
  %.0.i.i = select i1 %7, ptr %6, ptr %0
  %8 = and i8 %5, 31
  %9 = zext nneg i8 %8 to i32
  %10 = sub nsw i32 23, %9
  %11 = getelementptr inbounds nuw i8, ptr %0, i64 8
  %12 = load i32, ptr %11, align 8
  %.0.i = select i1 %7, i32 %12, i32 %10
  %13 = zext i32 %.0.i to i64
  %14 = getelementptr inbounds nuw i8, ptr %.0.i.i, i64 %13
  %15 = icmp ult i32 %2, %.0.i
  br i1 %15, label %.lr.ph.preheader, label %.critedge14

.lr.ph.preheader:                                 ; preds = %3
  %16 = zext i32 %2 to i64
  %17 = getelementptr inbounds nuw i8, ptr %.0.i.i, i64 %16
  br label %.lr.ph

.lr.ph:                                           ; preds = %.lr.ph.preheader, %19
  %.016 = phi ptr [ %20, %19 ], [ %17, %.lr.ph.preheader ]
  %18 = load i8, ptr %.016, align 1, !tbaa !38
  %.not = icmp eq i8 %18, %1
  br i1 %.not, label %.critedge, label %19

19:                                               ; preds = %.lr.ph
  %20 = getelementptr inbounds nuw i8, ptr %.016, i64 1
  %21 = icmp ult ptr %20, %14
  br i1 %21, label %.lr.ph, label %.critedge14, !llvm.loop !61

.critedge:                                        ; preds = %.lr.ph
  %22 = ptrtoint ptr %.016 to i64
  %23 = ptrtoint ptr %.0.i.i to i64
  %24 = sub i64 %22, %23
  %25 = trunc i64 %24 to i32
  br label %.critedge14

.critedge14:                                      ; preds = %19, %3, %.critedge
  %.013 = phi i32 [ %25, %.critedge ], [ -1, %3 ], [ -1, %19 ]
  ret i32 %.013
}